(dp0
S'08G-QSS2:Curr1'
p1
F3.197523
sS'02G-QSS3:Curr1'
p2
F3.233975
sS'12G-QSS3:Curr1'
p3
F3.315437
sS'noise'
p4
F0.0012
sS'01G-QSS4:Curr1'
p5
F4.630241
sS'05G-QSS3:Curr1'
p6
F3.528707
sS'14G-QSS2:Curr1'
p7
F3.199984
sS'amp'
p8
F0.1229
sS'17G-QSS2:Curr1'
p9
F3.186236
sS'09G-QSS1:Curr1'
p10
F4.175973
sS'07G-QSS2:Curr1'
p11
F3.177223
sS'offset'
p12
F0.5385
sS'11G-QSS3:Curr1'
p13
F3.730349
sS'16G-QSS2:Curr1'
p14
F3.18537
sS'18G-QSS1:Curr1'
p15
F4.675956
sS'10G-QSS4:Curr1'
p16
F3.79169
s.